; Function Attrs: nounwind uwtable
define range(i32 0, -2147483648) i32 @Wln_RetPropDelay(ptr noundef captures(none) initializes((124, 128)) %0) local_unnamed_addr #4 {
  %2 = getelementptr inbounds nuw i8, ptr %0, i64 120
  %3 = getelementptr inbounds nuw i8, ptr %0, i64 124
  store i32 0, ptr %3, align 4, !tbaa !26
  %4 = load ptr, ptr %0, align 8, !tbaa !3
  %5 = getelementptr i8, ptr %4, i64 76
  %.val22 = load i32, ptr %5, align 4, !tbaa !26
  %6 = icmp sgt i32 %.val22, 1
  br i1 %6, label %.lr.ph, label %._crit_edge

.lr.ph:                                           ; preds = %1
  %7 = getelementptr inbounds nuw i8, ptr %0, i64 128
  br label %8

8:                                                ; preds = %.lr.ph, %59
  %indvars.iv = phi i64 [ 1, %.lr.ph ], [ %indvars.iv.next, %59 ]
  %9 = phi ptr [ %4, %.lr.ph ], [ %60, %59 ]
  %.01723 = phi i32 [ 0, %.lr.ph ], [ %.2, %59 ]
  %10 = getelementptr i8, ptr %9, i64 80
  %.val19 = load ptr, ptr %10, align 8, !tbaa !12
  %11 = getelementptr inbounds nuw i32, ptr %.val19, i64 %indvars.iv
  %12 = load i32, ptr %11, align 4, !tbaa !13
  %13 = add i32 %12, -5
  %narrow.i = icmp ult i32 %13, -2
  br i1 %narrow.i, label %14, label %59

14:                                               ; preds = %8
  %15 = trunc nuw nsw i64 %indvars.iv to i32
  %16 = tail call i32 @Wln_RetPropDelay_rec(ptr noundef nonnull %0, i32 noundef %15)
  %17 = icmp eq i32 %.01723, %16
  br i1 %17, label %18, label %47

18:                                               ; preds = %14
  %19 = load i32, ptr %3, align 4, !tbaa !26
  %20 = load i32, ptr %2, align 8, !tbaa !33
  %21 = icmp eq i32 %19, %20
  br i1 %21, label %22, label %.Vec_IntGrow.exit10_crit_edge.i

.Vec_IntGrow.exit10_crit_edge.i:                  ; preds = %18
  %.pre.i = load ptr, ptr %7, align 8, !tbaa !12
  br label %Vec_IntPush.exit

22:                                               ; preds = %18
  %23 = icmp slt i32 %19, 16
  br i1 %23, label %24, label %31

24:                                               ; preds = %22
  %25 = load ptr, ptr %7, align 8, !tbaa !12
  %.not9.i.i = icmp eq ptr %25, null
  br i1 %.not9.i.i, label %28, label %26

26:                                               ; preds = %24
  %27 = tail call dereferenceable_or_null(64) ptr @realloc(ptr noundef nonnull %25, i64 noundef 64) #24
  br label %Vec_IntGrow.exit.i

28:                                               ; preds = %24
  %29 = tail call noalias dereferenceable_or_null(64) ptr @malloc(i64 noundef 64) #23
  br label %Vec_IntGrow.exit.i

Vec_IntGrow.exit.i:                               ; preds = %28, %26
  %30 = phi ptr [ %27, %26 ], [ %29, %28 ]
  store ptr %30, ptr %7, align 8, !tbaa !12
  store i32 16, ptr %2, align 8, !tbaa !33
  br label %Vec_IntPush.exit

31:                                               ; preds = %22
  %32 = shl nuw nsw i32 %19, 1
  %33 = load ptr, ptr %7, align 8, !tbaa !12
  %.not9.i9.i = icmp eq ptr %33, null
  %34 = zext nneg i32 %32 to i64
  %35 = shl nuw nsw i64 %34, 2
  br i1 %.not9.i9.i, label %38, label %36

36:                                               ; preds = %31
  %37 = tail call ptr @realloc(ptr noundef nonnull %33, i64 noundef %35) #24
  br label %40

38:                                               ; preds = %31
  %39 = tail call noalias ptr @malloc(i64 noundef %35) #23
  br label %40

40:                                               ; preds = %38, %36
  %41 = phi ptr [ %37, %36 ], [ %39, %38 ]
  store ptr %41, ptr %7, align 8, !tbaa !12
  store i32 %32, ptr %2, align 8, !tbaa !33
  br label %Vec_IntPush.exit

Vec_IntPush.exit:                                 ; preds = %.Vec_IntGrow.exit10_crit_edge.i, %Vec_IntGrow.exit.i, %40
  %42 = phi ptr [ %.pre.i, %.Vec_IntGrow.exit10_crit_edge.i ], [ %41, %40 ], [ %30, %Vec_IntGrow.exit.i ]
  %43 = load i32, ptr %3, align 4, !tbaa !26
  %44 = add nsw i32 %43, 1
  store i32 %44, ptr %3, align 4, !tbaa !26
  %45 = sext i32 %43 to i64
  %46 = getelementptr inbounds i32, ptr %42, i64 %45
  store i32 %15, ptr %46, align 4, !tbaa !13
  br label %59

47:                                               ; preds = %14
  %48 = icmp slt i32 %.01723, %16
  br i1 %48, label %49, label %59

49:                                               ; preds = %47
  %50 = load i32, ptr %2, align 8, !tbaa !33
  %.not.i.i = icmp slt i32 %50, 1
  %.pre = load ptr, ptr %7, align 8, !tbaa !12
  br i1 %.not.i.i, label %51, label %Vec_IntGrow.exit.i20

51:                                               ; preds = %49
  %.not9.i.i21 = icmp eq ptr %.pre, null
  br i1 %.not9.i.i21, label %54, label %52

52:                                               ; preds = %51
  %53 = tail call dereferenceable_or_null(4) ptr @realloc(ptr noundef nonnull %.pre, i64 noundef 4) #24
  br label %56

54:                                               ; preds = %51
  %55 = tail call noalias dereferenceable_or_null(4) ptr @malloc(i64 noundef 4) #23
  br label %56

56:                                               ; preds = %54, %52
  %57 = phi ptr [ %53, %52 ], [ %55, %54 ]
  store ptr %57, ptr %7, align 8, !tbaa !12
  store i32 1, ptr %2, align 8, !tbaa !33
  br label %Vec_IntGrow.exit.i20

Vec_IntGrow.exit.i20:                             ; preds = %56, %49
  %58 = phi ptr [ %57, %56 ], [ %.pre, %49 ]
  store i32 %15, ptr %58, align 4, !tbaa !13
  store i32 1, ptr %3, align 4, !tbaa !26
  br label %59

59:                                               ; preds = %Vec_IntPush.exit, %Vec_IntGrow.exit.i20, %47, %8
  %.2 = phi i32 [ %.01723, %8 ], [ %.01723, %Vec_IntPush.exit ], [ %16, %Vec_IntGrow.exit.i20 ], [ %.01723, %47 ]
  %indvars.iv.next = add nuw nsw i64 %indvars.iv, 1
  %60 = load ptr, ptr %0, align 8, !tbaa !3
  %61 = getelementptr i8, ptr %60, i64 76
  %.val = load i32, ptr %61, align 4, !tbaa !26
  %62 = sext i32 %.val to i64
  %63 = icmp slt i64 %indvars.iv.next, %62
  br i1 %63, label %8, label %._crit_edge, !llvm.loop !83

._crit_edge:                                      ; preds = %59, %1
  %.017.lcssa = phi i32 [ 0, %1 ], [ %.2, %59 ]
  ret i32 %.017.lcssa
}